target datalayout = "e-m:e-p270:32:32-p271:32:32-p272:64:64-i64:64-i128:128-f80:128-n8:16:32:64-S128"
target triple = "x86_64-pc-linux-gnu"

%union.pthread_cond_t = type { %struct.__pthread_cond_s }
%struct.__pthread_cond_s = type { %union.__atomic_wide_counter, %union.__atomic_wide_counter, [2 x i32], [2 x i32], i32, i32, [2 x i32] }
%union.__atomic_wide_counter = type { i64 }
%union.pthread_mutex_t = type { %struct.__pthread_mutex_s }
%struct.__pthread_mutex_s = type { i32, i32, i32, i32, i32, i16, i16, %struct.__pthread_internal_list }
%struct.__pthread_internal_list = type { ptr, ptr }
%struct.stepd_step_rec_t = type { ptr, ptr, i32, %union.pthread_cond_t, %union.pthread_mutex_t, %struct.slurm_step_id_msg, i32, i32, i32, i32, i32, i32, ptr, ptr, i32, i32, ptr, i32, i32, i32, i32, i32, ptr, ptr, ptr, ptr, i32, i32, i64, i64, i16, i32, ptr, ptr, ptr, i32, ptr, i32, ptr, i32, ptr, i16, i32, i32, i32, ptr, i32, ptr, ptr, ptr, ptr, i32, i32, ptr, ptr, i8, i8, i8, i64, i32, ptr, ptr, ptr, ptr, ptr, ptr, ptr, ptr, ptr, ptr, i32, i32, ptr, i8, %union.pthread_cond_t, %union.pthread_mutex_t, i64, ptr, i32, i32, i32, ptr, i64, ptr, ptr, i8, ptr, i16, ptr, ptr, ptr, ptr, ptr, ptr, i64, ptr, i64, ptr, i16, i8, i16, i32, ptr, i16, ptr, ptr, i16, ptr, ptr, ptr, i8 }
%struct.slurm_step_id_msg = type { i64, i32, i32, i32 }
%struct.launch_tasks_request_msg = type { i32, i32, i32, i32, ptr, ptr, ptr, i32, i32, i32, ptr, i32, i32, i32, i16, i16, i16, i16, i32, ptr, i64, %struct.slurm_step_id_msg, i64, ptr, i32, i32, i16, i16, ptr, i32, ptr, i16, ptr, ptr, ptr, ptr, ptr, i16, ptr, i16, ptr, i16, ptr, ptr, i16, ptr, i32, i32, ptr, %struct.sockaddr_storage, i8, ptr, i32, i32, i32, i16, ptr, ptr, ptr, i16, ptr, i32, ptr, ptr, i16, i16, ptr, ptr, ptr, ptr, ptr, i32, ptr, i16, ptr, i16, ptr, ptr, i16, ptr, ptr, ptr, ptr, i8 }
%struct.sockaddr_storage = type { i16, [118 x i8], i64 }
%struct.slurm_cred_arg_t = type { %struct.slurm_step_id_msg, i32, i32, ptr, i16, ptr, ptr, ptr, i32, ptr, ptr, ptr, ptr, ptr, ptr, ptr, i16, i64, ptr, ptr, ptr, ptr, ptr, i32, i32, ptr, i32, i16, ptr, ptr, ptr, i16, ptr, i64, ptr, ptr, ptr, i16, ptr, ptr, ptr, ptr, i32, ptr, ptr }
%struct.job_env_t = type { i32, i32, ptr, i32, i32, i32, ptr, ptr, ptr, ptr, i32, i32, i32, ptr }
%struct.slurm_cred_t = type { i32, %union.pthread_rwlock_t, ptr, i32, i16, ptr, i64, ptr, i8 }
%union.pthread_rwlock_t = type { %struct.__pthread_rwlock_arch_t }
%struct.__pthread_rwlock_arch_t = type { i32, i32, i32, i32, i32, i32, i32, i32, i8, [7 x i8], i64, i32 }

@.str.104 = private unnamed_addr constant [32 x i8] c"[job %u] %s failed status=%d:%d\00", align 1
@.str.105 = private unnamed_addr constant [7 x i8] c"epilog\00", align 1
@.str.106 = private unnamed_addr constant [7 x i8] c"prolog\00", align 1

; Function Attrs: nounwind uwtable
define internal i32 @_run_prolog_epilog(ptr noundef %0, i1 noundef zeroext %1) #0 {
  %3 = alloca ptr, align 8
  %4 = alloca i8, align 1
  %5 = alloca i32, align 4
  %6 = alloca %struct.job_env_t, align 8
  %7 = alloca ptr, align 8
  %8 = alloca i32, align 4
  %9 = alloca i32, align 4
  %10 = alloca i32, align 4
  store ptr %0, ptr %3, align 8
  %11 = zext i1 %1 to i8
  store i8 %11, ptr %4, align 1
  call void @llvm.lifetime.start.p0(i64 4, ptr %5) #12
  store i32 0, ptr %5, align 4
  call void @llvm.lifetime.start.p0(i64 88, ptr %6) #12
  call void @llvm.lifetime.start.p0(i64 8, ptr %7) #12
  call void @llvm.memset.p0.i64(ptr align 8 %6, i8 0, i64 88, i1 false)
  %12 = load ptr, ptr %3, align 8
  %13 = getelementptr inbounds nuw %struct.stepd_step_rec_t, ptr %12, i32 0, i32 90
  %14 = load ptr, ptr %13, align 8
  %15 = load ptr, ptr %3, align 8
  %16 = getelementptr inbounds nuw %struct.stepd_step_rec_t, ptr %15, i32 0, i32 13
  %17 = load ptr, ptr %16, align 8
  %18 = call ptr @gres_g_prep_build_env(ptr noundef %14, ptr noundef %17)
  store ptr %18, ptr %7, align 8
  %19 = getelementptr inbounds nuw %struct.job_env_t, ptr %6, i32 0, i32 2
  %20 = load ptr, ptr %7, align 8
  %21 = load ptr, ptr %3, align 8
  %22 = getelementptr inbounds nuw %struct.stepd_step_rec_t, ptr %21, i32 0, i32 10
  %23 = load i32, ptr %22, align 8
  call void @gres_g_prep_set_env(ptr noundef %19, ptr noundef %20, i32 noundef %23)
  br label %24

24:                                               ; preds = %2
  %25 = load ptr, ptr %7, align 8
  %26 = icmp ne ptr %25, null
  br i1 %26, label %27, label %29

27:                                               ; preds = %24
  %28 = load ptr, ptr %7, align 8
  call void @list_destroy(ptr noundef %28)
  br label %29

29:                                               ; preds = %27, %24
  store ptr null, ptr %7, align 8
  br label %30

30:                                               ; preds = %29
  br label %31

31:                                               ; preds = %30
  %32 = load ptr, ptr %3, align 8
  %33 = getelementptr inbounds nuw %struct.stepd_step_rec_t, ptr %32, i32 0, i32 5
  %34 = getelementptr inbounds nuw %struct.slurm_step_id_msg, ptr %33, i32 0, i32 1
  %35 = load i32, ptr %34, align 8
  %36 = getelementptr inbounds nuw %struct.job_env_t, ptr %6, i32 0, i32 4
  store i32 %35, ptr %36, align 4
  %37 = getelementptr inbounds nuw %struct.job_env_t, ptr %6, i32 0, i32 5
  store i32 -4, ptr %37, align 8
  %38 = load ptr, ptr %3, align 8
  %39 = getelementptr inbounds nuw %struct.stepd_step_rec_t, ptr %38, i32 0, i32 13
  %40 = load ptr, ptr %39, align 8
  %41 = getelementptr inbounds nuw %struct.job_env_t, ptr %6, i32 0, i32 7
  store ptr %40, ptr %41, align 8
  %42 = load ptr, ptr %3, align 8
  %43 = getelementptr inbounds nuw %struct.stepd_step_rec_t, ptr %42, i32 0, i32 14
  %44 = load i32, ptr %43, align 8
  %45 = getelementptr inbounds nuw %struct.job_env_t, ptr %6, i32 0, i32 3
  store i32 %44, ptr %45, align 8
  %46 = load ptr, ptr %3, align 8
  %47 = getelementptr inbounds nuw %struct.stepd_step_rec_t, ptr %46, i32 0, i32 97
  %48 = load ptr, ptr %47, align 8
  %49 = getelementptr inbounds nuw %struct.launch_tasks_request_msg, ptr %48, i32 0, i32 66
  %50 = load ptr, ptr %49, align 8
  %51 = getelementptr inbounds nuw %struct.slurm_cred_t, ptr %50, i32 0, i32 5
  %52 = load ptr, ptr %51, align 8
  %53 = getelementptr inbounds nuw %struct.slurm_cred_arg_t, ptr %52, i32 0, i32 29
  %54 = load ptr, ptr %53, align 8
  %55 = getelementptr inbounds nuw %struct.job_env_t, ptr %6, i32 0, i32 8
  store ptr %54, ptr %55, align 8
  %56 = load ptr, ptr %3, align 8
  %57 = getelementptr inbounds nuw %struct.stepd_step_rec_t, ptr %56, i32 0, i32 97
  %58 = load ptr, ptr %57, align 8
  %59 = getelementptr inbounds nuw %struct.launch_tasks_request_msg, ptr %58, i32 0, i32 70
  %60 = load ptr, ptr %59, align 8
  %61 = getelementptr inbounds nuw %struct.job_env_t, ptr %6, i32 0, i32 9
  store ptr %60, ptr %61, align 8
  %62 = load ptr, ptr %3, align 8
  %63 = getelementptr inbounds nuw %struct.stepd_step_rec_t, ptr %62, i32 0, i32 97
  %64 = load ptr, ptr %63, align 8
  %65 = getelementptr inbounds nuw %struct.launch_tasks_request_msg, ptr %64, i32 0, i32 71
  %66 = load i32, ptr %65, align 8
  %67 = getelementptr inbounds nuw %struct.job_env_t, ptr %6, i32 0, i32 10
  store i32 %66, ptr %67, align 8
  %68 = load ptr, ptr %3, align 8
  %69 = getelementptr inbounds nuw %struct.stepd_step_rec_t, ptr %68, i32 0, i32 34
  %70 = load ptr, ptr %69, align 8
  %71 = getelementptr inbounds nuw %struct.job_env_t, ptr %6, i32 0, i32 13
  store ptr %70, ptr %71, align 8
  %72 = load ptr, ptr %3, align 8
  %73 = getelementptr inbounds nuw %struct.stepd_step_rec_t, ptr %72, i32 0, i32 46
  %74 = load i32, ptr %73, align 8
  %75 = getelementptr inbounds nuw %struct.job_env_t, ptr %6, i32 0, i32 11
  store i32 %74, ptr %75, align 4
  %76 = load ptr, ptr %3, align 8
  %77 = getelementptr inbounds nuw %struct.stepd_step_rec_t, ptr %76, i32 0, i32 51
  %78 = load i32, ptr %77, align 8
  %79 = getelementptr inbounds nuw %struct.job_env_t, ptr %6, i32 0, i32 12
  store i32 %78, ptr %79, align 8
  %80 = load i8, ptr %4, align 1, !range !8, !noundef !9
  %81 = trunc i8 %80 to i1
  br i1 %81, label %89, label %82

82:                                               ; preds = %31
  %83 = load ptr, ptr %3, align 8
  %84 = getelementptr inbounds nuw %struct.stepd_step_rec_t, ptr %83, i32 0, i32 97
  %85 = load ptr, ptr %84, align 8
  %86 = getelementptr inbounds nuw %struct.launch_tasks_request_msg, ptr %85, i32 0, i32 66
  %87 = load ptr, ptr %86, align 8
  %88 = call i32 @run_prolog(ptr noundef %6, ptr noundef %87)
  store i32 %88, ptr %5, align 4
  br label %96

89:                                               ; preds = %31
  %90 = load ptr, ptr %3, align 8
  %91 = getelementptr inbounds nuw %struct.stepd_step_rec_t, ptr %90, i32 0, i32 97
  %92 = load ptr, ptr %91, align 8
  %93 = getelementptr inbounds nuw %struct.launch_tasks_request_msg, ptr %92, i32 0, i32 66
  %94 = load ptr, ptr %93, align 8
  %95 = call i32 @run_epilog(ptr noundef %6, ptr noundef %94)
  store i32 %95, ptr %5, align 4
  br label %96

96:                                               ; preds = %89, %82
  %97 = getelementptr inbounds nuw %struct.job_env_t, ptr %6, i32 0, i32 2
  %98 = load ptr, ptr %97, align 8
  %99 = icmp ne ptr %98, null
  br i1 %99, label %100, label %121

100:                                              ; preds = %96
  call void @llvm.lifetime.start.p0(i64 4, ptr %8) #12
  store i32 0, ptr %8, align 4
  br label %101

101:                                              ; preds = %116, %100
  %102 = getelementptr inbounds nuw %struct.job_env_t, ptr %6, i32 0, i32 2
  %103 = load ptr, ptr %102, align 8
  %104 = load i32, ptr %8, align 4
  %105 = sext i32 %104 to i64
  %106 = getelementptr inbounds ptr, ptr %103, i64 %105
  %107 = load ptr, ptr %106, align 8
  %108 = icmp ne ptr %107, null
  br i1 %108, label %110, label %109

109:                                              ; preds = %101
  call void @llvm.lifetime.end.p0(i64 4, ptr %8) #12
  br label %119

110:                                              ; preds = %101
  %111 = getelementptr inbounds nuw %struct.job_env_t, ptr %6, i32 0, i32 2
  %112 = load ptr, ptr %111, align 8
  %113 = load i32, ptr %8, align 4
  %114 = sext i32 %113 to i64
  %115 = getelementptr inbounds ptr, ptr %112, i64 %114
  call void @slurm_xfree(ptr noundef %115)
  br label %116

116:                                              ; preds = %110
  %117 = load i32, ptr %8, align 4
  %118 = add nsw i32 %117, 1
  store i32 %118, ptr %8, align 4
  br label %101, !llvm.loop !39

119:                                              ; preds = %109
  %120 = getelementptr inbounds nuw %struct.job_env_t, ptr %6, i32 0, i32 2
  call void @slurm_xfree(ptr noundef %120)
  br label %121

121:                                              ; preds = %119, %96
  %122 = load i32, ptr %5, align 4
  %123 = icmp ne i32 %122, 0
  br i1 %123, label %124, label %158

124:                                              ; preds = %121
  call void @llvm.lifetime.start.p0(i64 4, ptr %9) #12
  store i32 0, ptr %9, align 4
  call void @llvm.lifetime.start.p0(i64 4, ptr %10) #12
  store i32 0, ptr %10, align 4
  %125 = load i32, ptr %5, align 4
  %126 = and i32 %125, 127
  %127 = add nsw i32 %126, 1
  %128 = trunc i32 %127 to i8
  %129 = sext i8 %128 to i32
  %130 = ashr i32 %129, 1
  %131 = icmp sgt i32 %130, 0
  br i1 %131, label %132, label %135

132:                                              ; preds = %124
  %133 = load i32, ptr %5, align 4
  %134 = and i32 %133, 127
  store i32 %134, ptr %9, align 4
  br label %144

135:                                              ; preds = %124
  %136 = load i32, ptr %5, align 4
  %137 = and i32 %136, 127
  %138 = icmp eq i32 %137, 0
  br i1 %138, label %139, label %143

139:                                              ; preds = %135
  %140 = load i32, ptr %5, align 4
  %141 = and i32 %140, 65280
  %142 = ashr i32 %141, 8
  store i32 %142, ptr %10, align 4
  br label %143

143:                                              ; preds = %139, %135
  br label %144

144:                                              ; preds = %143, %132
  %145 = load ptr, ptr %3, align 8
  %146 = getelementptr inbounds nuw %struct.stepd_step_rec_t, ptr %145, i32 0, i32 5
  %147 = getelementptr inbounds nuw %struct.slurm_step_id_msg, ptr %146, i32 0, i32 1
  %148 = load i32, ptr %147, align 8
  %149 = load i8, ptr %4, align 1, !range !8, !noundef !9
  %150 = trunc i8 %149 to i1
  %151 = select i1 %150, ptr @.str.105, ptr @.str.106
  %152 = load i32, ptr %10, align 4
  %153 = load i32, ptr %9, align 4
  %154 = call i32 (ptr, ...) @error(ptr noundef @.str.104, i32 noundef %148, ptr noundef %151, i32 noundef %152, i32 noundef %153)
  %155 = load i8, ptr %4, align 1, !range !8, !noundef !9
  %156 = trunc i8 %155 to i1
  %157 = select i1 %156, i32 4023, i32 4022
  store i32 %157, ptr %5, align 4
  call void @llvm.lifetime.end.p0(i64 4, ptr %10) #12
  call void @llvm.lifetime.end.p0(i64 4, ptr %9) #12
  br label %158

158:                                              ; preds = %144, %121
  %159 = load i32, ptr %5, align 4
  call void @llvm.lifetime.end.p0(i64 8, ptr %7) #12
  call void @llvm.lifetime.end.p0(i64 88, ptr %6) #12
  call void @llvm.lifetime.end.p0(i64 4, ptr %5) #12
  ret i32 %159
}