; Function Attrs: nounwind uwtable
define internal fastcc range(i32 0, 4024) i32 @_run_prolog_epilog(ptr noundef readonly captures(none) %0, i1 noundef zeroext %1) unnamed_addr #0 {
  %3 = alloca %struct.job_env_t, align 8
  call void @llvm.lifetime.start.p0(i64 88, ptr nonnull %3) #17
  call void @llvm.memset.p0.i64(ptr noundef nonnull align 8 dereferenceable(88) %3, i8 0, i64 88, i1 false)
  %4 = getelementptr inbounds nuw i8, ptr %0, i64 760
  %5 = load ptr, ptr %4, align 8
  %6 = getelementptr inbounds nuw i8, ptr %0, i64 168
  %7 = load ptr, ptr %6, align 8
  %8 = tail call ptr @gres_g_prep_build_env(ptr noundef %5, ptr noundef %7) #17
  %9 = getelementptr inbounds nuw i8, ptr %3, i64 8
  %10 = getelementptr inbounds nuw i8, ptr %0, i64 152
  %11 = load i32, ptr %10, align 8
  call void @gres_g_prep_set_env(ptr noundef nonnull %9, ptr noundef %8, i32 noundef %11) #17
  %.not = icmp eq ptr %8, null
  br i1 %.not, label %13, label %12

12:                                               ; preds = %2
  call void @list_destroy(ptr noundef nonnull %8) #17
  br label %13

13:                                               ; preds = %12, %2
  %14 = getelementptr inbounds nuw i8, ptr %0, i64 120
  %15 = load i32, ptr %14, align 8
  %16 = getelementptr inbounds nuw i8, ptr %3, i64 20
  store i32 %15, ptr %16, align 4
  %17 = getelementptr inbounds nuw i8, ptr %3, i64 24
  store i32 -4, ptr %17, align 8
  %18 = load ptr, ptr %6, align 8
  %19 = getelementptr inbounds nuw i8, ptr %3, i64 40
  store ptr %18, ptr %19, align 8
  %20 = getelementptr inbounds nuw i8, ptr %0, i64 176
  %21 = load i32, ptr %20, align 8
  %22 = getelementptr inbounds nuw i8, ptr %3, i64 16
  store i32 %21, ptr %22, align 8
  %23 = getelementptr inbounds nuw i8, ptr %0, i64 816
  %24 = load ptr, ptr %23, align 8
  %25 = getelementptr inbounds nuw i8, ptr %24, i64 552
  %26 = load ptr, ptr %25, align 8
  %27 = getelementptr inbounds nuw i8, ptr %26, i64 80
  %28 = load ptr, ptr %27, align 8
  %29 = getelementptr inbounds nuw i8, ptr %28, i64 224
  %30 = load ptr, ptr %29, align 8
  %31 = getelementptr inbounds nuw i8, ptr %3, i64 48
  store ptr %30, ptr %31, align 8
  %32 = getelementptr inbounds nuw i8, ptr %24, i64 584
  %33 = load ptr, ptr %32, align 8
  %34 = getelementptr inbounds nuw i8, ptr %3, i64 56
  store ptr %33, ptr %34, align 8
  %35 = getelementptr inbounds nuw i8, ptr %24, i64 592
  %36 = load i32, ptr %35, align 8
  %37 = getelementptr inbounds nuw i8, ptr %3, i64 64
  store i32 %36, ptr %37, align 8
  %38 = getelementptr inbounds nuw i8, ptr %0, i64 296
  %39 = load ptr, ptr %38, align 8
  %40 = getelementptr inbounds nuw i8, ptr %3, i64 80
  store ptr %39, ptr %40, align 8
  %41 = getelementptr inbounds nuw i8, ptr %0, i64 376
  %42 = load i32, ptr %41, align 8
  %43 = getelementptr inbounds nuw i8, ptr %3, i64 68
  store i32 %42, ptr %43, align 4
  %44 = getelementptr inbounds nuw i8, ptr %0, i64 416
  %45 = load i32, ptr %44, align 8
  %46 = getelementptr inbounds nuw i8, ptr %3, i64 72
  store i32 %45, ptr %46, align 8
  br i1 %1, label %49, label %47

47:                                               ; preds = %13
  %48 = call i32 @run_prolog(ptr noundef nonnull %3, ptr noundef nonnull %26) #17
  br label %51

49:                                               ; preds = %13
  %50 = call i32 @run_epilog(ptr noundef nonnull %3, ptr noundef nonnull %26) #17
  br label %51

51:                                               ; preds = %49, %47
  %.033 = phi i32 [ %50, %49 ], [ %48, %47 ]
  %52 = load ptr, ptr %9, align 8
  %.not35 = icmp eq ptr %52, null
  br i1 %.not35, label %58, label %.preheader

.preheader:                                       ; preds = %51
  %53 = load ptr, ptr %52, align 8
  %.not3638 = icmp eq ptr %53, null
  br i1 %.not3638, label %._crit_edge, label %.lr.ph

._crit_edge:                                      ; preds = %.lr.ph, %.preheader
  call void @slurm_xfree(ptr noundef nonnull %9) #17
  br label %58

.lr.ph:                                           ; preds = %.preheader, %.lr.ph
  %indvars.iv = phi i64 [ %indvars.iv.next, %.lr.ph ], [ 0, %.preheader ]
  %54 = phi ptr [ %56, %.lr.ph ], [ %52, %.preheader ]
  call void @slurm_xfree(ptr noundef nonnull %54) #17
  %indvars.iv.next = add nuw nsw i64 %indvars.iv, 1
  %55 = load ptr, ptr %9, align 8
  %56 = getelementptr inbounds nuw ptr, ptr %55, i64 %indvars.iv.next
  %57 = load ptr, ptr %56, align 8
  %.not36 = icmp eq ptr %57, null
  br i1 %.not36, label %._crit_edge, label %.lr.ph, !llvm.loop !41

58:                                               ; preds = %._crit_edge, %51
  %.not37 = icmp eq i32 %.033, 0
  br i1 %.not37, label %73, label %59

59:                                               ; preds = %58
  %60 = and i32 %.033, 127
  %61 = shl nuw nsw i32 %60, 24
  %sext = add nuw i32 %61, 16777216
  %62 = icmp sgt i32 %sext, 33554431
  br i1 %62, label %68, label %63

63:                                               ; preds = %59
  %64 = icmp eq i32 %60, 0
  br i1 %64, label %65, label %68

65:                                               ; preds = %63
  %66 = lshr i32 %.033, 8
  %67 = and i32 %66, 255
  br label %68

68:                                               ; preds = %59, %63, %65
  %.031 = phi i32 [ 0, %65 ], [ 0, %63 ], [ %60, %59 ]
  %.0 = phi i32 [ %67, %65 ], [ 0, %63 ], [ 0, %59 ]
  %69 = load i32, ptr %14, align 8
  %70 = select i1 %1, ptr @.str.105, ptr @.str.106
  %71 = call i32 (ptr, ...) @error(ptr noundef nonnull @.str.104, i32 noundef %69, ptr noundef nonnull %70, i32 noundef %.0, i32 noundef %.031) #17
  %72 = select i1 %1, i32 4023, i32 4022
  br label %73

73:                                               ; preds = %68, %58
  %.1 = phi i32 [ %72, %68 ], [ 0, %58 ]
  call void @llvm.lifetime.end.p0(i64 88, ptr nonnull %3) #17
  ret i32 %.1
}